target datalayout = "e-m:e-p270:32:32-p271:32:32-p272:64:64-i64:64-i128:128-f80:128-n8:16:32:64-S128"
target triple = "x86_64-pc-linux-gnu"

; Function Attrs: nounwind uwtable
define internal double @trc_arib_std_b67(double noundef %0) #0 {
  %2 = alloca double, align 8
  %3 = alloca double, align 8
  %4 = alloca double, align 8
  %5 = alloca double, align 8
  store double %0, ptr %2, align 8, !tbaa !27
  call void @llvm.lifetime.start.p0(i64 8, ptr %3) #7
  store double 0x3FC6E3FE014D320D, ptr %3, align 8, !tbaa !27
  call void @llvm.lifetime.start.p0(i64 8, ptr %4) #7
  store double 0x3FD23803FD659BE6, ptr %4, align 8, !tbaa !27
  call void @llvm.lifetime.start.p0(i64 8, ptr %5) #7
  store double 0x3FE1EAC9E840F18D, ptr %5, align 8, !tbaa !27
  %6 = load double, ptr %2, align 8, !tbaa !27
  %7 = fcmp nsz ogt double 0.000000e+00, %6
  br i1 %7, label %8, label %9

8:                                                ; preds = %1
  br label %23

9:                                                ; preds = %1
  %10 = load double, ptr %2, align 8, !tbaa !27
  %11 = fcmp nsz ole double %10, 0x3FB5555555555555
  br i1 %11, label %12, label %16

12:                                               ; preds = %9
  %13 = load double, ptr %2, align 8, !tbaa !27
  %14 = fmul nsz double 3.000000e+00, %13
  %15 = call nsz double @llvm.sqrt.f64(double %14)
  br label %21

16:                                               ; preds = %9
  %17 = load double, ptr %2, align 8, !tbaa !27
  %18 = call nsz double @llvm.fmuladd.f64(double 1.200000e+01, double %17, double 0xBFD23803FD659BE6)
  %19 = call nsz double @llvm.log.f64(double %18)
  %20 = call nsz double @llvm.fmuladd.f64(double 0x3FC6E3FE014D320D, double %19, double 0x3FE1EAC9E840F18D)
  br label %21

21:                                               ; preds = %16, %12
  %22 = phi nsz double [ %15, %12 ], [ %20, %16 ]
  br label %23

23:                                               ; preds = %21, %8
  %24 = phi nsz double [ 0.000000e+00, %8 ], [ %22, %21 ]
  call void @llvm.lifetime.end.p0(i64 8, ptr %5) #7
  call void @llvm.lifetime.end.p0(i64 8, ptr %4) #7
  call void @llvm.lifetime.end.p0(i64 8, ptr %3) #7
  ret double %24
}

; Function Attrs: nounwind uwtable
define internal void @eotf_arib_std_b67_inv(double noundef %0, double noundef %1, ptr noundef %2) #0 {
  %4 = alloca double, align 8
  %5 = alloca double, align 8
  %6 = alloca ptr, align 8
  %7 = alloca double, align 8
  %8 = alloca double, align 8
  %9 = alloca double, align 8
  %10 = alloca i32, align 4
  %11 = alloca i32, align 4
  store double %0, ptr %4, align 8, !tbaa !27
  store double %1, ptr %5, align 8, !tbaa !27
  store ptr %2, ptr %6, align 8, !tbaa !30
  call void @llvm.lifetime.start.p0(i64 8, ptr %7) #7
  %12 = load double, ptr %4, align 8, !tbaa !27
  %13 = fdiv nsz double %12, 1.000000e+03
  %14 = call nsz double @llvm.log10.f64(double %13)
  %15 = call nsz double @llvm.fmuladd.f64(double 4.200000e-01, double %14, double 1.200000e+00)
  %16 = call nsz double @llvm.maxnum.f64(double %15, double 1.000000e+00)
  store double %16, ptr %7, align 8, !tbaa !27
  call void @llvm.lifetime.start.p0(i64 8, ptr %8) #7
  %17 = load double, ptr %5, align 8, !tbaa !27
  %18 = load double, ptr %4, align 8, !tbaa !27
  %19 = fdiv nsz double %17, %18
  %20 = load double, ptr %7, align 8, !tbaa !27
  %21 = fdiv nsz double 1.000000e+00, %20
  %22 = call nsz double @llvm.pow.f64(double %19, double %21)
  %23 = fmul nsz double 3.000000e+00, %22
  %24 = call nsz double @llvm.sqrt.f64(double %23)
  store double %24, ptr %8, align 8, !tbaa !27
  call void @llvm.lifetime.start.p0(i64 8, ptr %9) #7
  %25 = load ptr, ptr %6, align 8, !tbaa !30
  %26 = getelementptr inbounds double, ptr %25, i64 0
  %27 = load double, ptr %26, align 8, !tbaa !27
  %28 = load ptr, ptr %6, align 8, !tbaa !30
  %29 = getelementptr inbounds double, ptr %28, i64 1
  %30 = load double, ptr %29, align 8, !tbaa !27
  %31 = fmul nsz double 6.780000e-01, %30
  %32 = call nsz double @llvm.fmuladd.f64(double 2.627000e-01, double %27, double %31)
  %33 = load ptr, ptr %6, align 8, !tbaa !30
  %34 = getelementptr inbounds double, ptr %33, i64 2
  %35 = load double, ptr %34, align 8, !tbaa !27
  %36 = call nsz double @llvm.fmuladd.f64(double 5.930000e-02, double %35, double %32)
  store double %36, ptr %9, align 8, !tbaa !27
  %37 = load double, ptr %9, align 8, !tbaa !27
  %38 = fcmp nsz ogt double %37, 0.000000e+00
  br i1 %38, label %39, label %66

39:                                               ; preds = %3
  %40 = load double, ptr %9, align 8, !tbaa !27
  %41 = load double, ptr %4, align 8, !tbaa !27
  %42 = fdiv nsz double %40, %41
  %43 = load double, ptr %7, align 8, !tbaa !27
  %44 = fsub nsz double 1.000000e+00, %43
  %45 = load double, ptr %7, align 8, !tbaa !27
  %46 = fdiv nsz double %44, %45
  %47 = call nsz double @llvm.pow.f64(double %42, double %46)
  store double %47, ptr %9, align 8, !tbaa !27
  call void @llvm.lifetime.start.p0(i64 4, ptr %10) #7
  store i32 0, ptr %10, align 4, !tbaa !4
  br label %48

48:                                               ; preds = %62, %39
  %49 = load i32, ptr %10, align 4, !tbaa !4
  %50 = icmp slt i32 %49, 3
  br i1 %50, label %52, label %51

51:                                               ; preds = %48
  call void @llvm.lifetime.end.p0(i64 4, ptr %10) #7
  br label %65

52:                                               ; preds = %48
  %53 = load double, ptr %9, align 8, !tbaa !27
  %54 = load double, ptr %4, align 8, !tbaa !27
  %55 = fdiv nsz double %53, %54
  %56 = load ptr, ptr %6, align 8, !tbaa !30
  %57 = load i32, ptr %10, align 4, !tbaa !4
  %58 = sext i32 %57 to i64
  %59 = getelementptr inbounds double, ptr %56, i64 %58
  %60 = load double, ptr %59, align 8, !tbaa !27
  %61 = fmul nsz double %60, %55
  store double %61, ptr %59, align 8, !tbaa !27
  br label %62

62:                                               ; preds = %52
  %63 = load i32, ptr %10, align 4, !tbaa !4
  %64 = add nsw i32 %63, 1
  store i32 %64, ptr %10, align 4, !tbaa !4
  br label %48, !llvm.loop !45

65:                                               ; preds = %51
  br label %73

66:                                               ; preds = %3
  %67 = load ptr, ptr %6, align 8, !tbaa !30
  %68 = getelementptr inbounds double, ptr %67, i64 2
  store double 0.000000e+00, ptr %68, align 8, !tbaa !27
  %69 = load ptr, ptr %6, align 8, !tbaa !30
  %70 = getelementptr inbounds double, ptr %69, i64 1
  store double 0.000000e+00, ptr %70, align 8, !tbaa !27
  %71 = load ptr, ptr %6, align 8, !tbaa !30
  %72 = getelementptr inbounds double, ptr %71, i64 0
  store double 0.000000e+00, ptr %72, align 8, !tbaa !27
  br label %73

73:                                               ; preds = %66, %65
  call void @llvm.lifetime.start.p0(i64 4, ptr %11) #7
  store i32 0, ptr %11, align 4, !tbaa !4
  br label %74

74:                                               ; preds = %94, %73
  %75 = load i32, ptr %11, align 4, !tbaa !4
  %76 = icmp slt i32 %75, 3
  br i1 %76, label %78, label %77

77:                                               ; preds = %74
  call void @llvm.lifetime.end.p0(i64 4, ptr %11) #7
  br label %97

78:                                               ; preds = %74
  %79 = load ptr, ptr %6, align 8, !tbaa !30
  %80 = load i32, ptr %11, align 4, !tbaa !4
  %81 = sext i32 %80 to i64
  %82 = getelementptr inbounds double, ptr %79, i64 %81
  %83 = load double, ptr %82, align 8, !tbaa !27
  %84 = call nsz double @trc_arib_std_b67(double noundef %83)
  %85 = load double, ptr %8, align 8, !tbaa !27
  %86 = fsub nsz double %84, %85
  %87 = load double, ptr %8, align 8, !tbaa !27
  %88 = fsub nsz double 1.000000e+00, %87
  %89 = fdiv nsz double %86, %88
  %90 = load ptr, ptr %6, align 8, !tbaa !30
  %91 = load i32, ptr %11, align 4, !tbaa !4
  %92 = sext i32 %91 to i64
  %93 = getelementptr inbounds double, ptr %90, i64 %92
  store double %89, ptr %93, align 8, !tbaa !27
  br label %94

94:                                               ; preds = %78
  %95 = load i32, ptr %11, align 4, !tbaa !4
  %96 = add nsw i32 %95, 1
  store i32 %96, ptr %11, align 4, !tbaa !4
  br label %74, !llvm.loop !46

97:                                               ; preds = %77
  call void @llvm.lifetime.end.p0(i64 8, ptr %9) #7
  call void @llvm.lifetime.end.p0(i64 8, ptr %8) #7
  call void @llvm.lifetime.end.p0(i64 8, ptr %7) #7
  ret void
}