; Function Attrs: nofree norecurse nosync nounwind memory(argmem: readwrite) uwtable
define internal void @eotf_arib_std_b67_inv(double noundef %0, double noundef %1, ptr noundef captures(none) %2) #5 {
  %4 = fdiv nsz double %0, 1.000000e+03
  %5 = tail call nsz double @llvm.log10.f64(double %4)
  %6 = tail call nsz double @llvm.fmuladd.f64(double %5, double 4.200000e-01, double 1.200000e+00)
  %7 = tail call nsz double @llvm.maxnum.f64(double %6, double 1.000000e+00)
  %8 = fdiv nsz double %1, %0
  %9 = fdiv nsz double 1.000000e+00, %7
  %10 = tail call nsz double @llvm.pow.f64(double %8, double %9)
  %11 = fmul nsz double %10, 3.000000e+00
  %12 = tail call nsz double @llvm.sqrt.f64(double %11)
  %13 = load double, ptr %2, align 8, !tbaa !16
  %14 = getelementptr inbounds nuw i8, ptr %2, i64 8
  %15 = load double, ptr %14, align 8, !tbaa !16
  %16 = fmul nsz double %15, 6.780000e-01
  %17 = tail call nsz double @llvm.fmuladd.f64(double %13, double 2.627000e-01, double %16)
  %18 = getelementptr inbounds nuw i8, ptr %2, i64 16
  %19 = load double, ptr %18, align 8, !tbaa !16
  %20 = tail call nsz double @llvm.fmuladd.f64(double %19, double 5.930000e-02, double %17)
  %21 = fcmp nsz ogt double %20, 0.000000e+00
  br i1 %21, label %22, label %32

22:                                               ; preds = %3
  %23 = fdiv nsz double %20, %0
  %24 = fsub nsz double 1.000000e+00, %7
  %25 = fdiv nsz double %24, %7
  %26 = tail call nsz double @llvm.pow.f64(double %23, double %25)
  %27 = fdiv nsz double %26, %0
  br label %28

28:                                               ; preds = %22, %28
  %indvars.iv = phi i64 [ 0, %22 ], [ %indvars.iv.next, %28 ]
  %29 = getelementptr inbounds nuw double, ptr %2, i64 %indvars.iv
  %30 = load double, ptr %29, align 8, !tbaa !16
  %31 = fmul nsz double %27, %30
  store double %31, ptr %29, align 8, !tbaa !16
  %indvars.iv.next = add nuw nsw i64 %indvars.iv, 1
  %exitcond.not = icmp eq i64 %indvars.iv.next, 3
  br i1 %exitcond.not, label %.loopexit, label %28, !llvm.loop !36

32:                                               ; preds = %3
  tail call void @llvm.memset.p0.i64(ptr noundef nonnull align 8 dereferenceable(24) %2, i8 0, i64 24, i1 false)
  br label %.loopexit

.loopexit:                                        ; preds = %28, %32
  %33 = fsub nsz double 1.000000e+00, %12
  br label %35

34:                                               ; preds = %trc_arib_std_b67.exit
  ret void

35:                                               ; preds = %.loopexit, %trc_arib_std_b67.exit
  %indvars.iv33 = phi i64 [ 0, %.loopexit ], [ %indvars.iv.next34, %trc_arib_std_b67.exit ]
  %36 = getelementptr inbounds nuw double, ptr %2, i64 %indvars.iv33
  %37 = load double, ptr %36, align 8, !tbaa !16
  %38 = fcmp nsz olt double %37, 0.000000e+00
  br i1 %38, label %trc_arib_std_b67.exit, label %39

39:                                               ; preds = %35
  %40 = fcmp nsz ugt double %37, 0x3FB5555555555555
  br i1 %40, label %44, label %41

41:                                               ; preds = %39
  %42 = fmul nsz double %37, 3.000000e+00
  %43 = tail call nsz double @llvm.sqrt.f64(double %42)
  br label %trc_arib_std_b67.exit

44:                                               ; preds = %39
  %45 = tail call nsz double @llvm.fmuladd.f64(double %37, double 1.200000e+01, double 0xBFD23803FD659BE6)
  %46 = tail call nsz double @llvm.log.f64(double %45)
  %47 = tail call nsz double @llvm.fmuladd.f64(double %46, double 0x3FC6E3FE014D320D, double 0x3FE1EAC9E840F18D)
  br label %trc_arib_std_b67.exit

trc_arib_std_b67.exit:                            ; preds = %35, %41, %44
  %48 = phi nsz double [ 0.000000e+00, %35 ], [ %43, %41 ], [ %47, %44 ]
  %49 = fsub nsz double %48, %12
  %50 = fdiv nsz double %49, %33
  store double %50, ptr %36, align 8, !tbaa !16
  %indvars.iv.next34 = add nuw nsw i64 %indvars.iv33, 1
  %exitcond36.not = icmp eq i64 %indvars.iv.next34, 3
  br i1 %exitcond36.not, label %34, label %35, !llvm.loop !37
}